; Function Attrs: mustprogress uwtable
define void @_ZN6icu_7714StringReplacer7setDataEPKNS_23TransliterationRuleDataE(ptr noundef nonnull align 8 dereferenceable(96) initializes((88, 96)) %0, ptr noundef %1) unnamed_addr #1 align 2 {
  %3 = getelementptr inbounds nuw i8, ptr %0, i64 88
  store ptr %1, ptr %3, align 8, !tbaa !27
  %4 = getelementptr inbounds nuw i8, ptr %0, i64 24
  %5 = getelementptr inbounds nuw i8, ptr %0, i64 28
  %6 = load i16, ptr %4, align 8, !tbaa !17
  %7 = icmp slt i16 %6, 0
  %8 = ashr i16 %6, 5
  %9 = sext i16 %8 to i32
  %10 = load i32, ptr %5, align 4
  %11 = select i1 %7, i32 %10, i32 %9
  %12 = icmp sgt i32 %11, 0
  br i1 %12, label %.lr.ph, label %._crit_edge

.lr.ph:                                           ; preds = %2
  %13 = getelementptr inbounds nuw i8, ptr %0, i64 16
  br label %14

14:                                               ; preds = %.lr.ph, %23
  %.09 = phi i32 [ 0, %.lr.ph ], [ %26, %23 ]
  %15 = tail call noundef i32 @_ZNK6icu_7713UnicodeString8char32AtEi(ptr noundef nonnull align 8 dereferenceable(64) %13, i32 noundef %.09)
  %16 = load ptr, ptr %3, align 8, !tbaa !27
  %17 = tail call noundef ptr @_ZNK6icu_7723TransliterationRuleData6lookupEi(ptr noundef nonnull align 8 dereferenceable(1168) %16, i32 noundef %15)
  %.not = icmp eq ptr %17, null
  br i1 %.not, label %23, label %18

18:                                               ; preds = %14
  %19 = load ptr, ptr %3, align 8, !tbaa !27
  %20 = load ptr, ptr %17, align 8, !tbaa !15
  %21 = getelementptr inbounds nuw i8, ptr %20, i64 48
  %22 = load ptr, ptr %21, align 8
  tail call void %22(ptr noundef nonnull align 8 dereferenceable(8) %17, ptr noundef %19)
  br label %23

23:                                               ; preds = %18, %14
  %24 = icmp ult i32 %15, 65536
  %25 = select i1 %24, i32 1, i32 2
  %26 = add nuw nsw i32 %25, %.09
  %27 = load i16, ptr %4, align 8, !tbaa !17
  %28 = icmp slt i16 %27, 0
  %29 = ashr i16 %27, 5
  %30 = sext i16 %29 to i32
  %31 = load i32, ptr %5, align 4
  %32 = select i1 %28, i32 %31, i32 %30
  %33 = icmp slt i32 %26, %32
  br i1 %33, label %14, label %._crit_edge, !llvm.loop !39

._crit_edge:                                      ; preds = %23, %2
  ret void
}